; Function Attrs: nounwind uwtable
define noalias nonnull ptr @l_Lean_Meta_IndPredBelow_backwardsChaining___lambda__1___boxed(ptr noundef %0, ptr noundef %1, ptr noundef %2, ptr noundef %3, ptr noundef %4, ptr noundef %5, ptr noundef %6) local_unnamed_addr #0 {
  %8 = ptrtoint ptr %0 to i64
  %9 = and i64 %8, 1
  %.not = icmp eq i64 %9, 0
  br i1 %.not, label %10, label %lean_dec.exit18

10:                                               ; preds = %7
  %11 = load i32, ptr %0, align 4, !tbaa !12
  %12 = icmp sgt i32 %11, 1
  br i1 %12, label %13, label %15, !prof !11

13:                                               ; preds = %10
  %14 = add nsw i32 %11, -1
  store i32 %14, ptr %0, align 4, !tbaa !12
  br label %lean_dec.exit18

15:                                               ; preds = %10
  %.not.i = icmp eq i32 %11, 0
  br i1 %.not.i, label %lean_dec.exit18, label %16

16:                                               ; preds = %15
  tail call void @lean_dec_ref_cold(ptr noundef nonnull %0) #6
  br label %lean_dec.exit18

lean_dec.exit18:                                  ; preds = %16, %15, %13, %7
  tail call void @lean_inc_heartbeat() #6
  %17 = tail call noalias ptr @mi_malloc_small(i64 noundef 24) #6
  %18 = icmp eq ptr %17, null
  br i1 %18, label %19, label %l_Lean_Meta_IndPredBelow_backwardsChaining___lambda__1.exit

19:                                               ; preds = %lean_dec.exit18
  tail call void @lean_internal_panic_out_of_memory() #7
  unreachable

l_Lean_Meta_IndPredBelow_backwardsChaining___lambda__1.exit: ; preds = %lean_dec.exit18
  %20 = and i64 %8, 510
  %21 = or disjoint i64 %20, 1
  %22 = inttoptr i64 %21 to ptr
  %23 = getelementptr inbounds nuw i8, ptr %17, i64 4
  store i32 1, ptr %17, align 4, !tbaa !12
  store i32 131096, ptr %23, align 4
  %24 = getelementptr inbounds nuw i8, ptr %17, i64 8
  store ptr %22, ptr %24, align 8, !tbaa !4
  %25 = getelementptr inbounds nuw i8, ptr %17, i64 16
  store ptr %6, ptr %25, align 8, !tbaa !4
  %26 = ptrtoint ptr %5 to i64
  %27 = and i64 %26, 1
  %.not29 = icmp eq i64 %27, 0
  br i1 %.not29, label %28, label %lean_dec.exit17

28:                                               ; preds = %l_Lean_Meta_IndPredBelow_backwardsChaining___lambda__1.exit
  %29 = load i32, ptr %5, align 4, !tbaa !12
  %30 = icmp sgt i32 %29, 1
  br i1 %30, label %31, label %33, !prof !11

31:                                               ; preds = %28
  %32 = add nsw i32 %29, -1
  store i32 %32, ptr %5, align 4, !tbaa !12
  br label %lean_dec.exit17

33:                                               ; preds = %28
  %.not.i19 = icmp eq i32 %29, 0
  br i1 %.not.i19, label %lean_dec.exit17, label %34

34:                                               ; preds = %33
  tail call void @lean_dec_ref_cold(ptr noundef nonnull %5) #6
  br label %lean_dec.exit17

lean_dec.exit17:                                  ; preds = %34, %33, %31, %l_Lean_Meta_IndPredBelow_backwardsChaining___lambda__1.exit
  %35 = ptrtoint ptr %4 to i64
  %36 = and i64 %35, 1
  %.not30 = icmp eq i64 %36, 0
  br i1 %.not30, label %37, label %lean_dec.exit16

37:                                               ; preds = %lean_dec.exit17
  %38 = load i32, ptr %4, align 4, !tbaa !12
  %39 = icmp sgt i32 %38, 1
  br i1 %39, label %40, label %42, !prof !11

40:                                               ; preds = %37
  %41 = add nsw i32 %38, -1
  store i32 %41, ptr %4, align 4, !tbaa !12
  br label %lean_dec.exit16

42:                                               ; preds = %37
  %.not.i21 = icmp eq i32 %38, 0
  br i1 %.not.i21, label %lean_dec.exit16, label %43

43:                                               ; preds = %42
  tail call void @lean_dec_ref_cold(ptr noundef nonnull %4) #6
  br label %lean_dec.exit16

lean_dec.exit16:                                  ; preds = %43, %42, %40, %lean_dec.exit17
  %44 = ptrtoint ptr %3 to i64
  %45 = and i64 %44, 1
  %.not31 = icmp eq i64 %45, 0
  br i1 %.not31, label %46, label %lean_dec.exit15

46:                                               ; preds = %lean_dec.exit16
  %47 = load i32, ptr %3, align 4, !tbaa !12
  %48 = icmp sgt i32 %47, 1
  br i1 %48, label %49, label %51, !prof !11

49:                                               ; preds = %46
  %50 = add nsw i32 %47, -1
  store i32 %50, ptr %3, align 4, !tbaa !12
  br label %lean_dec.exit15

51:                                               ; preds = %46
  %.not.i23 = icmp eq i32 %47, 0
  br i1 %.not.i23, label %lean_dec.exit15, label %52

52:                                               ; preds = %51
  tail call void @lean_dec_ref_cold(ptr noundef nonnull %3) #6
  br label %lean_dec.exit15

lean_dec.exit15:                                  ; preds = %52, %51, %49, %lean_dec.exit16
  %53 = ptrtoint ptr %2 to i64
  %54 = and i64 %53, 1
  %.not32 = icmp eq i64 %54, 0
  br i1 %.not32, label %55, label %lean_dec.exit14

55:                                               ; preds = %lean_dec.exit15
  %56 = load i32, ptr %2, align 4, !tbaa !12
  %57 = icmp sgt i32 %56, 1
  br i1 %57, label %58, label %60, !prof !11

58:                                               ; preds = %55
  %59 = add nsw i32 %56, -1
  store i32 %59, ptr %2, align 4, !tbaa !12
  br label %lean_dec.exit14

60:                                               ; preds = %55
  %.not.i25 = icmp eq i32 %56, 0
  br i1 %.not.i25, label %lean_dec.exit14, label %61

61:                                               ; preds = %60
  tail call void @lean_dec_ref_cold(ptr noundef nonnull %2) #6
  br label %lean_dec.exit14

lean_dec.exit14:                                  ; preds = %61, %60, %58, %lean_dec.exit15
  %62 = ptrtoint ptr %1 to i64
  %63 = and i64 %62, 1
  %.not33 = icmp eq i64 %63, 0
  br i1 %.not33, label %64, label %lean_dec.exit

64:                                               ; preds = %lean_dec.exit14
  %65 = load i32, ptr %1, align 4, !tbaa !12
  %66 = icmp sgt i32 %65, 1
  br i1 %66, label %67, label %69, !prof !11

67:                                               ; preds = %64
  %68 = add nsw i32 %65, -1
  store i32 %68, ptr %1, align 4, !tbaa !12
  br label %lean_dec.exit

69:                                               ; preds = %64
  %.not.i27 = icmp eq i32 %65, 0
  br i1 %.not.i27, label %lean_dec.exit, label %70

70:                                               ; preds = %69
  tail call void @lean_dec_ref_cold(ptr noundef nonnull %1) #6
  br label %lean_dec.exit

lean_dec.exit:                                    ; preds = %70, %69, %67, %lean_dec.exit14
  ret ptr %17
}